target datalayout = "e-m:e-p270:32:32-p271:32:32-p272:64:64-i64:64-i128:128-f80:128-n8:16:32:64-S128"
target triple = "x86_64-pc-linux-gnu"

%struct.rsa_gen_ctx = type { ptr, ptr, i32, i64, ptr, i64, %struct.rsa_pss_params_30_st, i32, ptr, ptr }
%struct.rsa_pss_params_30_st = type { i32, %struct.anon, i32, i32 }
%struct.anon = type { i32, i32 }

@.str = private unnamed_addr constant [57 x i8] c"../openssl/providers/implementations/keymgmt/rsa_kmgmt.c\00", align 1

; Function Attrs: nounwind uwtable
define internal ptr @gen_init(ptr noundef %0, i32 noundef %1, i32 noundef %2, ptr noundef %3) #0 {
  %5 = alloca ptr, align 8
  %6 = alloca ptr, align 8
  %7 = alloca i32, align 4
  %8 = alloca i32, align 4
  %9 = alloca ptr, align 8
  %10 = alloca ptr, align 8
  %11 = alloca ptr, align 8
  %12 = alloca i32, align 4
  store ptr %0, ptr %6, align 8, !tbaa !3
  store i32 %1, ptr %7, align 4, !tbaa !11
  store i32 %2, ptr %8, align 4, !tbaa !11
  store ptr %3, ptr %9, align 8, !tbaa !13
  call void @llvm.lifetime.start.p0(i64 8, ptr %10) #6
  %13 = load ptr, ptr %6, align 8, !tbaa !3
  %14 = call ptr @ossl_prov_ctx_get0_libctx(ptr noundef %13)
  store ptr %14, ptr %10, align 8, !tbaa !7
  call void @llvm.lifetime.start.p0(i64 8, ptr %11) #6
  store ptr null, ptr %11, align 8, !tbaa !15
  %15 = call i32 @ossl_prov_is_running()
  %16 = icmp ne i32 %15, 0
  br i1 %16, label %18, label %17

17:                                               ; preds = %4
  store ptr null, ptr %5, align 8
  store i32 1, ptr %12, align 4
  br label %67

18:                                               ; preds = %4
  %19 = load i32, ptr %7, align 4, !tbaa !11
  %20 = and i32 %19, 3
  %21 = icmp eq i32 %20, 0
  br i1 %21, label %22, label %23

22:                                               ; preds = %18
  store ptr null, ptr %5, align 8
  store i32 1, ptr %12, align 4
  br label %67

23:                                               ; preds = %18
  %24 = call noalias ptr @CRYPTO_zalloc(i64 noundef 88, ptr noundef @.str, i32 noundef 461)
  store ptr %24, ptr %11, align 8, !tbaa !15
  %25 = icmp ne ptr %24, null
  br i1 %25, label %26, label %49

26:                                               ; preds = %23
  %27 = load ptr, ptr %10, align 8, !tbaa !7
  %28 = load ptr, ptr %11, align 8, !tbaa !15
  %29 = getelementptr inbounds nuw %struct.rsa_gen_ctx, ptr %28, i32 0, i32 0
  store ptr %27, ptr %29, align 8, !tbaa !25
  %30 = call ptr @BN_new()
  %31 = load ptr, ptr %11, align 8, !tbaa !15
  %32 = getelementptr inbounds nuw %struct.rsa_gen_ctx, ptr %31, i32 0, i32 4
  store ptr %30, ptr %32, align 8, !tbaa !31
  %33 = icmp eq ptr %30, null
  br i1 %33, label %40, label %34

34:                                               ; preds = %26
  %35 = load ptr, ptr %11, align 8, !tbaa !15
  %36 = getelementptr inbounds nuw %struct.rsa_gen_ctx, ptr %35, i32 0, i32 4
  %37 = load ptr, ptr %36, align 8, !tbaa !31
  %38 = call i32 @BN_set_word(ptr noundef %37, i64 noundef 65537)
  %39 = icmp ne i32 %38, 0
  br i1 %39, label %41, label %40

40:                                               ; preds = %34, %26
  br label %58

41:                                               ; preds = %34
  %42 = load ptr, ptr %11, align 8, !tbaa !15
  %43 = getelementptr inbounds nuw %struct.rsa_gen_ctx, ptr %42, i32 0, i32 3
  store i64 2048, ptr %43, align 8, !tbaa !17
  %44 = load ptr, ptr %11, align 8, !tbaa !15
  %45 = getelementptr inbounds nuw %struct.rsa_gen_ctx, ptr %44, i32 0, i32 5
  store i64 2, ptr %45, align 8, !tbaa !30
  %46 = load i32, ptr %8, align 4, !tbaa !11
  %47 = load ptr, ptr %11, align 8, !tbaa !15
  %48 = getelementptr inbounds nuw %struct.rsa_gen_ctx, ptr %47, i32 0, i32 2
  store i32 %46, ptr %48, align 8, !tbaa !24
  br label %50

49:                                               ; preds = %23
  br label %58

50:                                               ; preds = %41
  %51 = load ptr, ptr %11, align 8, !tbaa !15
  %52 = load ptr, ptr %9, align 8, !tbaa !13
  %53 = call i32 @rsa_gen_set_params(ptr noundef %51, ptr noundef %52)
  %54 = icmp ne i32 %53, 0
  br i1 %54, label %56, label %55

55:                                               ; preds = %50
  br label %58

56:                                               ; preds = %50
  %57 = load ptr, ptr %11, align 8, !tbaa !15
  store ptr %57, ptr %5, align 8
  store i32 1, ptr %12, align 4
  br label %67

58:                                               ; preds = %55, %49, %40
  %59 = load ptr, ptr %11, align 8, !tbaa !15
  %60 = icmp ne ptr %59, null
  br i1 %60, label %61, label %65

61:                                               ; preds = %58
  %62 = load ptr, ptr %11, align 8, !tbaa !15
  %63 = getelementptr inbounds nuw %struct.rsa_gen_ctx, ptr %62, i32 0, i32 4
  %64 = load ptr, ptr %63, align 8, !tbaa !31
  call void @BN_free(ptr noundef %64)
  br label %65

65:                                               ; preds = %61, %58
  %66 = load ptr, ptr %11, align 8, !tbaa !15
  call void @CRYPTO_free(ptr noundef %66, ptr noundef @.str, i32 noundef 481)
  store ptr null, ptr %5, align 8
  store i32 1, ptr %12, align 4
  br label %67

67:                                               ; preds = %65, %56, %22, %17
  call void @llvm.lifetime.end.p0(i64 8, ptr %11) #6
  call void @llvm.lifetime.end.p0(i64 8, ptr %10) #6
  %68 = load ptr, ptr %5, align 8
  ret ptr %68
}