; Function Attrs: nounwind uwtable
define internal fastcc ptr @gen_init(ptr noundef %0, i32 noundef %1, i32 noundef range(i32 0, 4097) %2, ptr noundef %3) unnamed_addr #0 {
  %5 = tail call ptr @ossl_prov_ctx_get0_libctx(ptr noundef %0) #6
  %6 = tail call i32 @ossl_prov_is_running() #6
  %.not = icmp eq i32 %6, 0
  %7 = and i32 %1, 3
  %8 = icmp eq i32 %7, 0
  %or.cond = or i1 %8, %.not
  br i1 %or.cond, label %24, label %9

9:                                                ; preds = %4
  %10 = tail call noalias ptr @CRYPTO_zalloc(i64 noundef 88, ptr noundef nonnull @.str, i32 noundef 461) #6
  %.not18 = icmp eq ptr %10, null
  br i1 %.not18, label %.critedge, label %11

11:                                               ; preds = %9
  store ptr %5, ptr %10, align 8, !tbaa !18
  %12 = tail call ptr @BN_new() #6
  %13 = getelementptr inbounds nuw i8, ptr %10, i64 32
  store ptr %12, ptr %13, align 8, !tbaa !22
  %14 = icmp eq ptr %12, null
  br i1 %14, label %22, label %15

15:                                               ; preds = %11
  %16 = tail call i32 @BN_set_word(ptr noundef nonnull %12, i64 noundef 65537) #6
  %.not19 = icmp eq i32 %16, 0
  br i1 %.not19, label %22, label %17

17:                                               ; preds = %15
  %18 = getelementptr inbounds nuw i8, ptr %10, i64 24
  store i64 2048, ptr %18, align 8, !tbaa !11
  %19 = getelementptr inbounds nuw i8, ptr %10, i64 40
  store i64 2, ptr %19, align 8, !tbaa !21
  %20 = getelementptr inbounds nuw i8, ptr %10, i64 16
  store i32 %2, ptr %20, align 8, !tbaa !17
  %21 = tail call i32 @rsa_gen_set_params(ptr noundef nonnull %10, ptr noundef %3)
  %.not20 = icmp eq i32 %21, 0
  br i1 %.not20, label %22, label %24

22:                                               ; preds = %15, %11, %17
  %23 = load ptr, ptr %13, align 8, !tbaa !22
  tail call void @BN_free(ptr noundef %23) #6
  br label %.critedge

.critedge:                                        ; preds = %9, %22
  tail call void @CRYPTO_free(ptr noundef %10, ptr noundef nonnull @.str, i32 noundef 481) #6
  br label %24

24:                                               ; preds = %17, %4, %.critedge
  %.0 = phi ptr [ null, %.critedge ], [ null, %4 ], [ %10, %17 ]
  ret ptr %.0
}